target datalayout = "e-m:e-p270:32:32-p271:32:32-p272:64:64-i64:64-i128:128-f80:128-n8:16:32:64-S128"
target triple = "x86_64-pc-linux-gnu"

@simd_support = internal thread_local global i32 -1, align 4

; Function Attrs: nounwind uwtable
define void @jsimd_quantize(ptr noundef %0, ptr noundef %1, ptr noundef %2) #0 {
  %4 = alloca ptr, align 8
  %5 = alloca ptr, align 8
  %6 = alloca ptr, align 8
  store ptr %0, ptr %4, align 8, !tbaa !59
  store ptr %1, ptr %5, align 8, !tbaa !59
  store ptr %2, ptr %6, align 8, !tbaa !59
  %7 = call align 4 ptr @llvm.threadlocal.address.p0(ptr align 4 @simd_support)
  %8 = load i32, ptr %7, align 4, !tbaa !3
  %9 = icmp eq i32 %8, -1
  br i1 %9, label %10, label %11

10:                                               ; preds = %3
  call void @init_simd()
  br label %11

11:                                               ; preds = %10, %3
  %12 = call align 4 ptr @llvm.threadlocal.address.p0(ptr align 4 @simd_support)
  %13 = load i32, ptr %12, align 4, !tbaa !3
  %14 = and i32 %13, 128
  %15 = icmp ne i32 %14, 0
  br i1 %15, label %16, label %20

16:                                               ; preds = %11
  %17 = load ptr, ptr %4, align 8, !tbaa !59
  %18 = load ptr, ptr %5, align 8, !tbaa !59
  %19 = load ptr, ptr %6, align 8, !tbaa !59
  call void @jsimd_quantize_avx2(ptr noundef %17, ptr noundef %18, ptr noundef %19)
  br label %24

20:                                               ; preds = %11
  %21 = load ptr, ptr %4, align 8, !tbaa !59
  %22 = load ptr, ptr %5, align 8, !tbaa !59
  %23 = load ptr, ptr %6, align 8, !tbaa !59
  call void @jsimd_quantize_sse2(ptr noundef %21, ptr noundef %22, ptr noundef %23)
  br label %24

24:                                               ; preds = %20, %16
  ret void
}